(dp1
S'failed'
p2
(lp3
S'1'
asS'source_names'
p4
(lp5
S'.'
asS'ids'
p6
(dp7
I1
(S'/Users/stephan/Documents/work/Dissertation/PythonModules/GeologicalDataProcessing/test'
p8
S'GeologicalDataProcessing.test'
p9
Ntp10
ss.